target datalayout = "e-m:e-p270:32:32-p271:32:32-p272:64:64-i64:64-i128:128-f80:128-n8:16:32:64-S128"
target triple = "x86_64-pc-linux-gnu"

%struct._zend_string = type { %struct._zend_refcounted_h, i64, i64, [1 x i8] }
%struct._zend_refcounted_h = type { i32, %union.anon }
%union.anon = type { i32 }
%struct._php_stream = type { ptr, ptr, %struct._php_stream_filter_chain, %struct._php_stream_filter_chain, ptr, ptr, %struct._zval_struct, i16, [16 x i8], i32, ptr, ptr, ptr, ptr, i64, ptr, i64, i64, i64, i64, ptr }
%struct._php_stream_filter_chain = type { ptr, ptr, ptr }
%struct._zval_struct = type { %union._zend_value, %union.anon.0, %union.anon.3 }
%union._zend_value = type { i64 }
%union.anon.0 = type { i32 }
%union.anon.3 = type { i32 }
%struct._zend_array = type { %struct._zend_refcounted_h, %union.anon.4, i32, %union.anon.6, i32, i32, i32, i32, i64, ptr }
%union.anon.4 = type { i32 }
%union.anon.6 = type { ptr }
%struct._Bucket = type { %struct._zval_struct, i64, ptr }
%struct.anon.1 = type { i8, i8, %union.anon.2 }
%union.anon.2 = type { i16 }

@__const.php_libxml_sniff_charset_from_stream.buf = private unnamed_addr constant [14 x i8] c"Content-Type:\00", align 1

; Function Attrs: alwaysinline nounwind uwtable
define internal zeroext i8 @zval_get_type(ptr noundef %0) #2 {
  %2 = alloca ptr, align 8
  store ptr %0, ptr %2, align 8, !tbaa !30
  %3 = load ptr, ptr %2, align 8, !tbaa !30
  %4 = getelementptr inbounds nuw %struct._zval_struct, ptr %3, i32 0, i32 1
  %5 = getelementptr inbounds nuw %struct.anon.1, ptr %4, i32 0, i32 0
  %6 = load i8, ptr %5, align 8, !tbaa !9
  ret i8 %6
}

; Function Attrs: nounwind uwtable
define dso_local ptr @php_libxml_sniff_charset_from_stream(ptr noundef %0) #0 {
  %2 = alloca ptr, align 8
  %3 = alloca ptr, align 8
  %4 = alloca ptr, align 8
  %5 = alloca ptr, align 8
  %6 = alloca i64, align 8
  %7 = alloca ptr, align 8
  %8 = alloca i32, align 4
  %9 = alloca i64, align 8
  %10 = alloca ptr, align 8
  %11 = alloca i32, align 4
  %12 = alloca ptr, align 8
  %13 = alloca ptr, align 8
  %14 = alloca i32, align 4
  %15 = alloca [14 x i8], align 1
  store ptr %0, ptr %3, align 8, !tbaa !25
  %16 = load ptr, ptr %3, align 8, !tbaa !25
  %17 = getelementptr inbounds nuw %struct._php_stream, ptr %16, i32 0, i32 6
  %18 = call zeroext i8 @zval_get_type(ptr noundef %17)
  %19 = zext i8 %18 to i32
  %20 = icmp eq i32 %19, 7
  br i1 %20, label %21, label %156

21:                                               ; preds = %1
  call void @llvm.lifetime.start.p0(i64 8, ptr %4) #11
  br label %22

22:                                               ; preds = %21
  call void @llvm.lifetime.start.p0(i64 8, ptr %5) #11
  %23 = load ptr, ptr %3, align 8, !tbaa !25
  %24 = getelementptr inbounds nuw %struct._php_stream, ptr %23, i32 0, i32 6
  %25 = getelementptr inbounds nuw %struct._zval_struct, ptr %24, i32 0, i32 0
  %26 = load ptr, ptr %25, align 8, !tbaa !9
  store ptr %26, ptr %5, align 8, !tbaa !27
  call void @llvm.lifetime.start.p0(i64 8, ptr %6) #11
  call void @llvm.lifetime.start.p0(i64 8, ptr %7) #11
  store ptr null, ptr %7, align 8, !tbaa !12
  call void @llvm.lifetime.start.p0(i64 4, ptr %8) #11
  store i32 0, ptr %8, align 4, !tbaa !29
  call void @llvm.lifetime.start.p0(i64 8, ptr %9) #11
  %27 = load ptr, ptr %5, align 8, !tbaa !27
  %28 = getelementptr inbounds nuw %struct._zend_array, ptr %27, i32 0, i32 1
  %29 = load i32, ptr %28, align 8, !tbaa !9
  %30 = xor i32 %29, -1
  %31 = and i32 %30, 4
  %32 = zext i32 %31 to i64
  %33 = mul i64 %32, 4
  %34 = add i64 16, %33
  store i64 %34, ptr %9, align 8, !tbaa !10
  call void @llvm.lifetime.start.p0(i64 8, ptr %10) #11
  %35 = load ptr, ptr %5, align 8, !tbaa !27
  %36 = getelementptr inbounds nuw %struct._zend_array, ptr %35, i32 0, i32 3
  %37 = load ptr, ptr %36, align 8, !tbaa !9
  %38 = load i32, ptr %8, align 4, !tbaa !29
  %39 = zext i32 %38 to i64
  %40 = load i64, ptr %9, align 8, !tbaa !10
  %41 = mul i64 %39, %40
  %42 = getelementptr inbounds nuw i8, ptr %37, i64 %41
  store ptr %42, ptr %10, align 8, !tbaa !30
  call void @llvm.lifetime.start.p0(i64 4, ptr %11) #11
  %43 = load ptr, ptr %5, align 8, !tbaa !27
  %44 = getelementptr inbounds nuw %struct._zend_array, ptr %43, i32 0, i32 4
  %45 = load i32, ptr %44, align 8, !tbaa !32
  %46 = load i32, ptr %8, align 4, !tbaa !29
  %47 = sub i32 %45, %46
  store i32 %47, ptr %11, align 4, !tbaa !29
  br label %48

48:                                               ; preds = %144, %22
  %49 = load i32, ptr %11, align 4, !tbaa !29
  %50 = icmp ugt i32 %49, 0
  br i1 %50, label %51, label %147

51:                                               ; preds = %48
  call void @llvm.lifetime.start.p0(i64 8, ptr %12) #11
  %52 = load ptr, ptr %10, align 8, !tbaa !30
  store ptr %52, ptr %12, align 8, !tbaa !30
  %53 = load ptr, ptr %5, align 8, !tbaa !27
  %54 = getelementptr inbounds nuw %struct._zend_array, ptr %53, i32 0, i32 1
  %55 = load i32, ptr %54, align 8, !tbaa !9
  %56 = and i32 %55, 4
  %57 = icmp ne i32 %56, 0
  br i1 %57, label %58, label %65

58:                                               ; preds = %51
  %59 = load ptr, ptr %10, align 8, !tbaa !30
  %60 = getelementptr inbounds nuw %struct._zval_struct, ptr %59, i32 1
  store ptr %60, ptr %10, align 8, !tbaa !30
  %61 = load i32, ptr %8, align 4, !tbaa !29
  %62 = zext i32 %61 to i64
  store i64 %62, ptr %6, align 8, !tbaa !10
  %63 = load i32, ptr %8, align 4, !tbaa !29
  %64 = add i32 %63, 1
  store i32 %64, ptr %8, align 4, !tbaa !29
  br label %85

65:                                               ; preds = %51
  call void @llvm.lifetime.start.p0(i64 8, ptr %13) #11
  %66 = load ptr, ptr %10, align 8, !tbaa !30
  store ptr %66, ptr %13, align 8, !tbaa !34
  %67 = load ptr, ptr %13, align 8, !tbaa !34
  %68 = getelementptr inbounds %struct._Bucket, ptr %67, i64 1
  %69 = getelementptr inbounds nuw %struct._Bucket, ptr %68, i32 0, i32 0
  store ptr %69, ptr %10, align 8, !tbaa !30
  %70 = load ptr, ptr %13, align 8, !tbaa !34
  %71 = getelementptr inbounds nuw %struct._Bucket, ptr %70, i32 0, i32 1
  %72 = load i64, ptr %71, align 8, !tbaa !36
  store i64 %72, ptr %6, align 8, !tbaa !10
  %73 = load ptr, ptr %13, align 8, !tbaa !34
  %74 = getelementptr inbounds nuw %struct._Bucket, ptr %73, i32 0, i32 2
  %75 = load ptr, ptr %74, align 8, !tbaa !39
  store ptr %75, ptr %7, align 8, !tbaa !12
  %76 = load ptr, ptr %12, align 8, !tbaa !30
  %77 = call zeroext i8 @zval_get_type(ptr noundef %76)
  %78 = zext i8 %77 to i32
  %79 = icmp eq i32 %78, 12
  br i1 %79, label %80, label %84

80:                                               ; preds = %65
  %81 = load ptr, ptr %12, align 8, !tbaa !30
  %82 = getelementptr inbounds nuw %struct._zval_struct, ptr %81, i32 0, i32 0
  %83 = load ptr, ptr %82, align 8, !tbaa !9
  store ptr %83, ptr %12, align 8, !tbaa !30
  br label %84

84:                                               ; preds = %80, %65
  call void @llvm.lifetime.end.p0(i64 8, ptr %13) #11
  br label %85

85:                                               ; preds = %84, %58
  %86 = load ptr, ptr %12, align 8, !tbaa !30
  %87 = call zeroext i8 @zval_get_type(ptr noundef %86)
  %88 = zext i8 %87 to i32
  %89 = icmp eq i32 %88, 0
  %90 = xor i1 %89, true
  %91 = xor i1 %90, true
  %92 = zext i1 %91 to i32
  %93 = sext i32 %92 to i64
  %94 = call i64 @llvm.expect.i64(i64 %93, i64 0)
  %95 = icmp ne i64 %94, 0
  br i1 %95, label %96, label %97

96:                                               ; preds = %85
  store i32 6, ptr %14, align 4
  br label %141

97:                                               ; preds = %85
  %98 = load ptr, ptr %12, align 8, !tbaa !30
  store ptr %98, ptr %4, align 8, !tbaa !30
  call void @llvm.lifetime.start.p0(i64 14, ptr %15) #11
  call void @llvm.memcpy.p0.p0.i64(ptr align 1 %15, ptr align 1 @__const.php_libxml_sniff_charset_from_stream.buf, i64 14, i1 false)
  %99 = load ptr, ptr %4, align 8, !tbaa !30
  %100 = call zeroext i8 @zval_get_type(ptr noundef %99)
  %101 = zext i8 %100 to i32
  %102 = icmp eq i32 %101, 6
  br i1 %102, label %103, label %137

103:                                              ; preds = %97
  %104 = load ptr, ptr %4, align 8, !tbaa !30
  %105 = getelementptr inbounds nuw %struct._zval_struct, ptr %104, i32 0, i32 0
  %106 = load ptr, ptr %105, align 8, !tbaa !9
  %107 = getelementptr inbounds nuw %struct._zend_string, ptr %106, i32 0, i32 3
  %108 = getelementptr inbounds [1 x i8], ptr %107, i64 0, i64 0
  %109 = load ptr, ptr %4, align 8, !tbaa !30
  %110 = getelementptr inbounds nuw %struct._zval_struct, ptr %109, i32 0, i32 0
  %111 = load ptr, ptr %110, align 8, !tbaa !9
  %112 = getelementptr inbounds nuw %struct._zend_string, ptr %111, i32 0, i32 2
  %113 = load i64, ptr %112, align 8, !tbaa !14
  %114 = getelementptr inbounds [14 x i8], ptr %15, i64 0, i64 0
  %115 = call i32 @zend_binary_strncasecmp(ptr noundef %108, i64 noundef %113, ptr noundef %114, i64 noundef 13, i64 noundef 13)
  %116 = icmp ne i32 %115, 0
  br i1 %116, label %137, label %117

117:                                              ; preds = %103
  %118 = load ptr, ptr %4, align 8, !tbaa !30
  %119 = getelementptr inbounds nuw %struct._zval_struct, ptr %118, i32 0, i32 0
  %120 = load ptr, ptr %119, align 8, !tbaa !9
  %121 = getelementptr inbounds nuw %struct._zend_string, ptr %120, i32 0, i32 3
  %122 = getelementptr inbounds [1 x i8], ptr %121, i64 0, i64 0
  %123 = getelementptr inbounds nuw i8, ptr %122, i64 14
  %124 = getelementptr inbounds i8, ptr %123, i64 -1
  %125 = load ptr, ptr %4, align 8, !tbaa !30
  %126 = getelementptr inbounds nuw %struct._zval_struct, ptr %125, i32 0, i32 0
  %127 = load ptr, ptr %126, align 8, !tbaa !9
  %128 = getelementptr inbounds nuw %struct._zend_string, ptr %127, i32 0, i32 3
  %129 = getelementptr inbounds [1 x i8], ptr %128, i64 0, i64 0
  %130 = load ptr, ptr %4, align 8, !tbaa !30
  %131 = getelementptr inbounds nuw %struct._zval_struct, ptr %130, i32 0, i32 0
  %132 = load ptr, ptr %131, align 8, !tbaa !9
  %133 = getelementptr inbounds nuw %struct._zend_string, ptr %132, i32 0, i32 2
  %134 = load i64, ptr %133, align 8, !tbaa !14
  %135 = getelementptr inbounds nuw i8, ptr %129, i64 %134
  %136 = call ptr @php_libxml_sniff_charset_from_string(ptr noundef %124, ptr noundef %135)
  store ptr %136, ptr %2, align 8
  store i32 1, ptr %14, align 4
  br label %138

137:                                              ; preds = %103, %97
  store i32 0, ptr %14, align 4
  br label %138

138:                                              ; preds = %137, %117
  call void @llvm.lifetime.end.p0(i64 14, ptr %15) #11
  %139 = load i32, ptr %14, align 4
  switch i32 %139, label %141 [
    i32 0, label %140
  ]

140:                                              ; preds = %138
  store i32 0, ptr %14, align 4
  br label %141

141:                                              ; preds = %140, %138, %96
  call void @llvm.lifetime.end.p0(i64 8, ptr %12) #11
  %142 = load i32, ptr %14, align 4
  switch i32 %142, label %148 [
    i32 0, label %143
    i32 6, label %144
  ]

143:                                              ; preds = %141
  br label %144

144:                                              ; preds = %143, %141
  %145 = load i32, ptr %11, align 4, !tbaa !29
  %146 = add i32 %145, -1
  store i32 %146, ptr %11, align 4, !tbaa !29
  br label %48

147:                                              ; preds = %48
  store i32 0, ptr %14, align 4
  br label %148

148:                                              ; preds = %147, %141
  call void @llvm.lifetime.end.p0(i64 4, ptr %11) #11
  call void @llvm.lifetime.end.p0(i64 8, ptr %10) #11
  call void @llvm.lifetime.end.p0(i64 8, ptr %9) #11
  call void @llvm.lifetime.end.p0(i64 4, ptr %8) #11
  call void @llvm.lifetime.end.p0(i64 8, ptr %7) #11
  call void @llvm.lifetime.end.p0(i64 8, ptr %6) #11
  call void @llvm.lifetime.end.p0(i64 8, ptr %5) #11
  %149 = load i32, ptr %14, align 4
  switch i32 %149, label %153 [
    i32 0, label %150
  ]

150:                                              ; preds = %148
  br label %151

151:                                              ; preds = %150
  br label %152

152:                                              ; preds = %151
  store i32 0, ptr %14, align 4
  br label %153

153:                                              ; preds = %152, %148
  call void @llvm.lifetime.end.p0(i64 8, ptr %4) #11
  %154 = load i32, ptr %14, align 4
  switch i32 %154, label %159 [
    i32 0, label %155
    i32 1, label %157
  ]

155:                                              ; preds = %153
  br label %156

156:                                              ; preds = %155, %1
  store ptr null, ptr %2, align 8
  br label %157

157:                                              ; preds = %156, %153
  %158 = load ptr, ptr %2, align 8
  ret ptr %158

159:                                              ; preds = %153
  unreachable
}