; Function Attrs: nounwind uwtable
define dso_local noundef ptr @php_libxml_sniff_charset_from_stream(ptr noundef readonly captures(none) %0) local_unnamed_addr #0 {
  %2 = alloca [14 x i8], align 1
  %3 = getelementptr inbounds nuw i8, ptr %0, i64 88
  %4 = load i8, ptr %3, align 8, !tbaa !4
  %5 = icmp eq i8 %4, 7
  br i1 %5, label %6, label %.thread53

6:                                                ; preds = %1
  %7 = getelementptr inbounds nuw i8, ptr %0, i64 80
  %8 = load ptr, ptr %7, align 8, !tbaa !4
  %9 = getelementptr inbounds nuw i8, ptr %8, i64 8
  %10 = getelementptr inbounds nuw i8, ptr %8, i64 24
  %11 = load i32, ptr %10, align 8, !tbaa !14
  %.not57 = icmp eq i32 %11, 0
  br i1 %.not57, label %.thread53, label %.lr.ph.preheader

.lr.ph.preheader:                                 ; preds = %6
  %12 = getelementptr inbounds nuw i8, ptr %8, i64 16
  %13 = load ptr, ptr %12, align 8, !tbaa !4
  br label %.lr.ph

.lr.ph:                                           ; preds = %.lr.ph.preheader, %.thread
  %.04060 = phi i32 [ %38, %.thread ], [ %11, %.lr.ph.preheader ]
  %.04159 = phi ptr [ %.142, %.thread ], [ %13, %.lr.ph.preheader ]
  %14 = load i32, ptr %9, align 8, !tbaa !4
  %15 = and i32 %14, 4
  %.not45 = icmp eq i32 %15, 0
  br i1 %.not45, label %18, label %16

16:                                               ; preds = %.lr.ph
  %17 = getelementptr inbounds nuw i8, ptr %.04159, i64 16
  br label %25

18:                                               ; preds = %.lr.ph
  %19 = getelementptr inbounds nuw i8, ptr %.04159, i64 32
  %20 = getelementptr inbounds nuw i8, ptr %.04159, i64 8
  %21 = load i8, ptr %20, align 8, !tbaa !4
  %22 = icmp eq i8 %21, 12
  br i1 %22, label %23, label %25

23:                                               ; preds = %18
  %24 = load ptr, ptr %.04159, align 8, !tbaa !4
  br label %25

25:                                               ; preds = %18, %23, %16
  %.142 = phi ptr [ %17, %16 ], [ %19, %23 ], [ %19, %18 ]
  %.038 = phi ptr [ %.04159, %16 ], [ %24, %23 ], [ %.04159, %18 ]
  %26 = getelementptr inbounds nuw i8, ptr %.038, i64 8
  %27 = load i8, ptr %26, align 8, !tbaa !4
  %28 = icmp eq i8 %27, 0
  br i1 %28, label %.thread, label %29, !prof !17

29:                                               ; preds = %25
  call void @llvm.lifetime.start.p0(i64 14, ptr nonnull %2) #11
  call void @llvm.memcpy.p0.p0.i64(ptr noundef nonnull align 1 dereferenceable(14) %2, ptr noundef nonnull align 1 dereferenceable(14) @__const.php_libxml_sniff_charset_from_stream.buf, i64 14, i1 false)
  %30 = load i8, ptr %26, align 8, !tbaa !4
  %31 = icmp eq i8 %30, 6
  br i1 %31, label %32, label %.thread50

32:                                               ; preds = %29
  %33 = load ptr, ptr %.038, align 8, !tbaa !4
  %34 = getelementptr inbounds nuw i8, ptr %33, i64 24
  %35 = getelementptr inbounds nuw i8, ptr %33, i64 16
  %36 = load i64, ptr %35, align 8, !tbaa !10
  %37 = call i32 @zend_binary_strncasecmp(ptr noundef nonnull %34, i64 noundef %36, ptr noundef nonnull %2, i64 noundef 13, i64 noundef 13) #11
  %.not46 = icmp eq i32 %37, 0
  br i1 %.not46, label %39, label %.thread50

.thread50:                                        ; preds = %32, %29
  call void @llvm.lifetime.end.p0(i64 14, ptr nonnull %2) #11
  br label %.thread

.thread:                                          ; preds = %25, %.thread50
  %38 = add i32 %.04060, -1
  %.not = icmp eq i32 %38, 0
  br i1 %.not, label %.thread53, label %.lr.ph

39:                                               ; preds = %32
  %40 = load ptr, ptr %.038, align 8, !tbaa !4
  %41 = getelementptr inbounds nuw i8, ptr %40, i64 24
  %42 = getelementptr inbounds nuw i8, ptr %40, i64 37
  %43 = getelementptr inbounds nuw i8, ptr %40, i64 16
  %44 = load i64, ptr %43, align 8, !tbaa !10
  %45 = getelementptr inbounds nuw i8, ptr %41, i64 %44
  %46 = call ptr @php_libxml_sniff_charset_from_string(ptr noundef nonnull %42, ptr noundef nonnull %45)
  call void @llvm.lifetime.end.p0(i64 14, ptr nonnull %2) #11
  br label %.thread53

.thread53:                                        ; preds = %.thread, %6, %1, %39
  %.4 = phi ptr [ %46, %39 ], [ null, %1 ], [ null, %6 ], [ null, %.thread ]
  ret ptr %.4
}